target datalayout = "e-m:e-p270:32:32-p271:32:32-p272:64:64-i64:64-i128:128-f80:128-n8:16:32:64-S128"
target triple = "x86_64-pc-linux-gnu"

%struct.Int128_ = type { i64, i64 }

; Function Attrs: nounwind uwtable
define dso_local { i64, i64 } @i128_add64(i64 %0, i64 %1, i64 noundef %2) #0 {
  %4 = alloca %struct.Int128_, align 8
  %5 = alloca %struct.Int128_, align 8
  %6 = alloca i64, align 8
  %7 = alloca i64, align 8
  %8 = getelementptr inbounds { i64, i64 }, ptr %5, i32 0, i32 0
  store i64 %0, ptr %8, align 8
  %9 = getelementptr inbounds { i64, i64 }, ptr %5, i32 0, i32 1
  store i64 %1, ptr %9, align 8
  store i64 %2, ptr %6, align 8
  %10 = getelementptr inbounds %struct.Int128_, ptr %5, i32 0, i32 1
  %11 = load i64, ptr %10, align 8
  %12 = load i64, ptr %6, align 8
  %13 = add i64 %11, %12
  store i64 %13, ptr %7, align 8
  %14 = getelementptr inbounds %struct.Int128_, ptr %4, i32 0, i32 0
  %15 = load i64, ptr %7, align 8
  %16 = getelementptr inbounds %struct.Int128_, ptr %5, i32 0, i32 1
  %17 = load i64, ptr %16, align 8
  %18 = icmp ult i64 %15, %17
  br i1 %18, label %19, label %23

19:                                               ; preds = %3
  %20 = getelementptr inbounds %struct.Int128_, ptr %5, i32 0, i32 0
  %21 = load i64, ptr %20, align 8
  %22 = add i64 %21, 1
  br label %26

23:                                               ; preds = %3
  %24 = getelementptr inbounds %struct.Int128_, ptr %5, i32 0, i32 0
  %25 = load i64, ptr %24, align 8
  br label %26

26:                                               ; preds = %23, %19
  %27 = phi i64 [ %22, %19 ], [ %25, %23 ]
  store i64 %27, ptr %14, align 8
  %28 = getelementptr inbounds %struct.Int128_, ptr %4, i32 0, i32 1
  %29 = load i64, ptr %7, align 8
  store i64 %29, ptr %28, align 8
  %30 = load { i64, i64 }, ptr %4, align 8
  ret { i64, i64 } %30
}

; Function Attrs: nounwind uwtable
define dso_local { i64, i64 } @i128_not(i64 %0, i64 %1) #0 {
  %3 = alloca %struct.Int128_, align 8
  %4 = alloca %struct.Int128_, align 8
  %5 = getelementptr inbounds { i64, i64 }, ptr %4, i32 0, i32 0
  store i64 %0, ptr %5, align 8
  %6 = getelementptr inbounds { i64, i64 }, ptr %4, i32 0, i32 1
  store i64 %1, ptr %6, align 8
  %7 = getelementptr inbounds %struct.Int128_, ptr %3, i32 0, i32 0
  %8 = getelementptr inbounds %struct.Int128_, ptr %4, i32 0, i32 0
  %9 = load i64, ptr %8, align 8
  %10 = xor i64 %9, -1
  store i64 %10, ptr %7, align 8
  %11 = getelementptr inbounds %struct.Int128_, ptr %3, i32 0, i32 1
  %12 = getelementptr inbounds %struct.Int128_, ptr %4, i32 0, i32 1
  %13 = load i64, ptr %12, align 8
  %14 = xor i64 %13, -1
  store i64 %14, ptr %11, align 8
  %15 = load { i64, i64 }, ptr %3, align 8
  ret { i64, i64 } %15
}

; Function Attrs: nounwind uwtable
define dso_local { i64, i64 } @i128_from_int(i64 noundef %0) #0 {
  %2 = alloca %struct.Int128_, align 8
  %3 = alloca i64, align 8
  store i64 %0, ptr %3, align 8
  %4 = getelementptr inbounds %struct.Int128_, ptr %2, i32 0, i32 0
  store i64 0, ptr %4, align 8
  %5 = getelementptr inbounds %struct.Int128_, ptr %2, i32 0, i32 1
  %6 = load i64, ptr %3, align 8
  store i64 %6, ptr %5, align 8
  %7 = load { i64, i64 }, ptr %2, align 8
  ret { i64, i64 } %7
}

; Function Attrs: nounwind uwtable
define dso_local { i64, i64 } @i128_neg(i64 %0, i64 %1) #0 {
  %3 = alloca %struct.Int128_, align 8
  %4 = alloca %struct.Int128_, align 8
  %5 = alloca %struct.Int128_, align 8
  %6 = getelementptr inbounds { i64, i64 }, ptr %4, i32 0, i32 0
  store i64 %0, ptr %6, align 8
  %7 = getelementptr inbounds { i64, i64 }, ptr %4, i32 0, i32 1
  store i64 %1, ptr %7, align 8
  %8 = getelementptr inbounds %struct.Int128_, ptr %4, i32 0, i32 1
  %9 = load i64, ptr %8, align 8
  %10 = icmp ne i64 %9, 0
  br i1 %10, label %16, label %11

11:                                               ; preds = %2
  %12 = getelementptr inbounds %struct.Int128_, ptr %4, i32 0, i32 1
  %13 = load i64, ptr %12, align 8
  %14 = icmp ne i64 %13, 0
  br i1 %14, label %16, label %15

15:                                               ; preds = %11
  call void @llvm.memcpy.p0.p0.i64(ptr align 8 %3, ptr align 8 %4, i64 16, i1 false)
  br label %35

16:                                               ; preds = %11, %2
  %17 = getelementptr inbounds { i64, i64 }, ptr %4, i32 0, i32 0
  %18 = load i64, ptr %17, align 8
  %19 = getelementptr inbounds { i64, i64 }, ptr %4, i32 0, i32 1
  %20 = load i64, ptr %19, align 8
  %21 = call { i64, i64 } @i128_not(i64 %18, i64 %20)
  %22 = getelementptr inbounds { i64, i64 }, ptr %5, i32 0, i32 0
  %23 = extractvalue { i64, i64 } %21, 0
  store i64 %23, ptr %22, align 8
  %24 = getelementptr inbounds { i64, i64 }, ptr %5, i32 0, i32 1
  %25 = extractvalue { i64, i64 } %21, 1
  store i64 %25, ptr %24, align 8
  %26 = getelementptr inbounds { i64, i64 }, ptr %5, i32 0, i32 0
  %27 = load i64, ptr %26, align 8
  %28 = getelementptr inbounds { i64, i64 }, ptr %5, i32 0, i32 1
  %29 = load i64, ptr %28, align 8
  %30 = call { i64, i64 } @i128_add64(i64 %27, i64 %29, i64 noundef 1)
  %31 = getelementptr inbounds { i64, i64 }, ptr %3, i32 0, i32 0
  %32 = extractvalue { i64, i64 } %30, 0
  store i64 %32, ptr %31, align 8
  %33 = getelementptr inbounds { i64, i64 }, ptr %3, i32 0, i32 1
  %34 = extractvalue { i64, i64 } %30, 1
  store i64 %34, ptr %33, align 8
  br label %35

35:                                               ; preds = %16, %15
  %36 = load { i64, i64 }, ptr %3, align 8
  ret { i64, i64 } %36
}

; Function Attrs: nounwind uwtable
define dso_local { i64, i64 } @i128_from_signed(i64 noundef %0) #0 {
  %2 = alloca %struct.Int128_, align 8
  %3 = alloca i64, align 8
  store i64 %0, ptr %3, align 8
  %4 = getelementptr inbounds %struct.Int128_, ptr %2, i32 0, i32 0
  %5 = load i64, ptr %3, align 8
  %6 = icmp slt i64 %5, 0
  %7 = select i1 %6, i64 -1, i64 0
  store i64 %7, ptr %4, align 8
  %8 = getelementptr inbounds %struct.Int128_, ptr %2, i32 0, i32 1
  %9 = load i64, ptr %3, align 8
  store i64 %9, ptr %8, align 8
  %10 = load { i64, i64 }, ptr %2, align 8
  ret { i64, i64 } %10
}

; Function Attrs: nounwind uwtable
define dso_local { i64, i64 } @i128_from_double_signed(double noundef %0) #0 {
  %2 = alloca %struct.Int128_, align 8
  %3 = alloca double, align 8
  %4 = alloca %struct.Int128_, align 8
  store double %0, ptr %3, align 8
  %5 = load double, ptr %3, align 8
  %6 = fcmp olt double %5, 0.000000e+00
  br i1 %6, label %7, label %25

7:                                                ; preds = %1
  %8 = load double, ptr %3, align 8
  %9 = fneg double %8
  %10 = fptosi double %9 to i64
  %11 = call { i64, i64 } @i128_from_signed(i64 noundef %10)
  %12 = getelementptr inbounds { i64, i64 }, ptr %4, i32 0, i32 0
  %13 = extractvalue { i64, i64 } %11, 0
  store i64 %13, ptr %12, align 8
  %14 = getelementptr inbounds { i64, i64 }, ptr %4, i32 0, i32 1
  %15 = extractvalue { i64, i64 } %11, 1
  store i64 %15, ptr %14, align 8
  %16 = getelementptr inbounds { i64, i64 }, ptr %4, i32 0, i32 0
  %17 = load i64, ptr %16, align 8
  %18 = getelementptr inbounds { i64, i64 }, ptr %4, i32 0, i32 1
  %19 = load i64, ptr %18, align 8
  %20 = call { i64, i64 } @i128_neg(i64 %17, i64 %19)
  %21 = getelementptr inbounds { i64, i64 }, ptr %2, i32 0, i32 0
  %22 = extractvalue { i64, i64 } %20, 0
  store i64 %22, ptr %21, align 8
  %23 = getelementptr inbounds { i64, i64 }, ptr %2, i32 0, i32 1
  %24 = extractvalue { i64, i64 } %20, 1
  store i64 %24, ptr %23, align 8
  br label %33

25:                                               ; preds = %1
  %26 = load double, ptr %3, align 8
  %27 = fptoui double %26 to i64
  %28 = call { i64, i64 } @i128_from_int(i64 noundef %27)
  %29 = getelementptr inbounds { i64, i64 }, ptr %2, i32 0, i32 0
  %30 = extractvalue { i64, i64 } %28, 0
  store i64 %30, ptr %29, align 8
  %31 = getelementptr inbounds { i64, i64 }, ptr %2, i32 0, i32 1
  %32 = extractvalue { i64, i64 } %28, 1
  store i64 %32, ptr %31, align 8
  br label %33

33:                                               ; preds = %25, %7
  %34 = load { i64, i64 }, ptr %2, align 8
  ret { i64, i64 } %34
}