; Function Attrs: mustprogress nofree norecurse nosync nounwind willreturn memory(none) uwtable
define dso_local { i64, i64 } @i128_from_double_signed(double noundef %0) local_unnamed_addr #1 {
  %2 = fcmp olt double %0, 0.000000e+00
  br i1 %2, label %3, label %13

3:                                                ; preds = %1
  %4 = fneg double %0
  %5 = fptosi double %4 to i64
  %.not.i = icmp eq i64 %5, 0
  br i1 %.not.i, label %i128_neg.exit, label %6

6:                                                ; preds = %3
  %isnotneg = icmp sgt i64 %5, -1
  %7 = sext i1 %isnotneg to i64
  %8 = xor i64 %5, -1
  %9 = sub i64 0, %5
  %10 = icmp ult i64 %9, %8
  %11 = zext i1 %10 to i64
  %12 = add nsw i64 %11, %7
  br label %i128_neg.exit

13:                                               ; preds = %1
  %14 = fptoui double %0 to i64
  br label %i128_neg.exit

i128_neg.exit:                                    ; preds = %6, %3, %13
  %.sroa.03.0 = phi i64 [ 0, %13 ], [ %12, %6 ], [ 0, %3 ]
  %.pn.i.pn = phi i64 [ %14, %13 ], [ %9, %6 ], [ 0, %3 ]
  %.fca.0.insert = insertvalue { i64, i64 } poison, i64 %.sroa.03.0, 0
  %.fca.1.insert = insertvalue { i64, i64 } %.fca.0.insert, i64 %.pn.i.pn, 1
  ret { i64, i64 } %.fca.1.insert
}